target datalayout = "e-m:e-p270:32:32-p271:32:32-p272:64:64-i64:64-i128:128-f80:128-n8:16:32:64-S128"
target triple = "x86_64-pc-linux-gnu"

%struct.PortalData = type { ptr, ptr, ptr, ptr, ptr, i32, i32, i32, ptr, i32, %struct.QueryCompletion, ptr, ptr, ptr, ptr, i32, i32, i32, i8, i8, ptr, ptr, ptr, ptr, ptr, ptr, ptr, i8, i8, i64, i64, i8 }
%struct.QueryCompletion = type { i32, i64 }

@.str.3 = private unnamed_addr constant [12 x i8] c"portalmem.c\00", align 1
@.str.13 = private unnamed_addr constant [26 x i8] c"portal \22%s\22 cannot be run\00", align 1
@__func__.MarkPortalActive = private unnamed_addr constant [17 x i8] c"MarkPortalActive\00", align 1

; Function Attrs: nounwind uwtable
define dso_local void @MarkPortalActive(ptr noundef %0) #0 {
  %2 = alloca ptr, align 8
  store ptr %0, ptr %2, align 8
  %3 = load ptr, ptr %2, align 8
  %4 = getelementptr inbounds nuw %struct.PortalData, ptr %3, i32 0, i32 17
  %5 = load i32, ptr %4, align 8
  %6 = icmp ne i32 %5, 2
  br i1 %6, label %7, label %21

7:                                                ; preds = %1
  br label %8

8:                                                ; preds = %7
  br i1 true, label %9, label %11

9:                                                ; preds = %8
  %10 = call zeroext i1 @errstart_cold(i32 noundef 21, ptr noundef null) #7
  br i1 %10, label %13, label %19

11:                                               ; preds = %8
  %12 = call zeroext i1 @errstart(i32 noundef 21, ptr noundef null)
  br i1 %12, label %13, label %19

13:                                               ; preds = %11, %9
  %14 = call i32 @errcode(i32 noundef 325)
  %15 = load ptr, ptr %2, align 8
  %16 = getelementptr inbounds nuw %struct.PortalData, ptr %15, i32 0, i32 0
  %17 = load ptr, ptr %16, align 8
  %18 = call i32 (ptr, ...) @errmsg(ptr noundef @.str.13, ptr noundef %17)
  call void @errfinish(ptr noundef @.str.3, i32 noundef 401, ptr noundef @__func__.MarkPortalActive)
  br label %19

19:                                               ; preds = %13, %11, %9
  unreachable

20:                                               ; No predecessors!
  br label %21

21:                                               ; preds = %20, %1
  %22 = load ptr, ptr %2, align 8
  %23 = getelementptr inbounds nuw %struct.PortalData, ptr %22, i32 0, i32 17
  store i32 3, ptr %23, align 8
  %24 = call i32 @GetCurrentSubTransactionId()
  %25 = load ptr, ptr %2, align 8
  %26 = getelementptr inbounds nuw %struct.PortalData, ptr %25, i32 0, i32 6
  store i32 %24, ptr %26, align 4
  ret void
}