; Function Attrs: nounwind uwtable
define dso_local void @MarkPortalActive(ptr noundef captures(none) %0) local_unnamed_addr #0 {
  %2 = getelementptr inbounds nuw i8, ptr %0, i64 128
  %3 = load i32, ptr %2, align 8
  %.not = icmp eq i32 %3, 2
  br i1 %.not, label %9, label %4

4:                                                ; preds = %1
  %5 = tail call zeroext i1 @errstart_cold(i32 noundef 21, ptr noundef null) #9
  tail call void @llvm.assume(i1 %5)
  %6 = tail call i32 @errcode(i32 noundef 325) #8
  %7 = load ptr, ptr %0, align 8
  %8 = tail call i32 (ptr, ...) @errmsg(ptr noundef nonnull @.str.13, ptr noundef %7) #8
  tail call void @errfinish(ptr noundef nonnull @.str.3, i32 noundef 401, ptr noundef nonnull @__func__.MarkPortalActive) #8
  unreachable

9:                                                ; preds = %1
  store i32 3, ptr %2, align 8
  %10 = tail call i32 @GetCurrentSubTransactionId() #8
  %11 = getelementptr inbounds nuw i8, ptr %0, i64 44
  store i32 %10, ptr %11, align 4
  ret void
}